target datalayout = "e-m:e-p270:32:32-p271:32:32-p272:64:64-i64:64-i128:128-f80:128-n8:16:32:64-S128"
target triple = "x86_64-pc-linux-gnu"

%struct.cbb_st = type { ptr, ptr, i64, i8, i8, i8 }
%struct.cbs_st = type { ptr, i64 }

; Function Attrs: nounwind uwtable
define hidden i32 @CBS_get_asn1_implicit_string(ptr noundef %0, ptr noundef %1, ptr noundef %2, i32 noundef %3, i32 noundef %4) #0 {
  %6 = alloca i32, align 4
  %7 = alloca ptr, align 8
  %8 = alloca ptr, align 8
  %9 = alloca ptr, align 8
  %10 = alloca i32, align 4
  %11 = alloca i32, align 4
  %12 = alloca %struct.cbb_st, align 8
  %13 = alloca %struct.cbs_st, align 8
  %14 = alloca %struct.cbs_st, align 8
  %15 = alloca i32, align 4
  %16 = alloca ptr, align 8
  %17 = alloca i64, align 8
  store ptr %0, ptr %7, align 8, !tbaa !6
  store ptr %1, ptr %8, align 8, !tbaa !6
  store ptr %2, ptr %9, align 8, !tbaa !11
  store i32 %3, ptr %10, align 4, !tbaa !20
  store i32 %4, ptr %11, align 4, !tbaa !20
  %18 = load ptr, ptr %7, align 8, !tbaa !6
  %19 = load i32, ptr %10, align 4, !tbaa !20
  %20 = call i32 @CBS_peek_asn1_tag(ptr noundef %18, i32 noundef %19)
  %21 = icmp ne i32 %20, 0
  br i1 %21, label %22, label %28

22:                                               ; preds = %5
  %23 = load ptr, ptr %9, align 8, !tbaa !11
  store ptr null, ptr %23, align 8, !tbaa !16
  %24 = load ptr, ptr %7, align 8, !tbaa !6
  %25 = load ptr, ptr %8, align 8, !tbaa !6
  %26 = load i32, ptr %10, align 4, !tbaa !20
  %27 = call i32 @CBS_get_asn1(ptr noundef %24, ptr noundef %25, i32 noundef %26)
  store i32 %27, ptr %6, align 4
  br label %70

28:                                               ; preds = %5
  call void @llvm.lifetime.start.p0(i64 32, ptr %12) #4
  call void @llvm.lifetime.start.p0(i64 16, ptr %13) #4
  %29 = load ptr, ptr %7, align 8, !tbaa !6
  %30 = call i64 @CBS_len(ptr noundef %29)
  %31 = call i32 @CBB_init(ptr noundef %12, i64 noundef %30)
  %32 = icmp ne i32 %31, 0
  br i1 %32, label %33, label %39

33:                                               ; preds = %28
  %34 = load ptr, ptr %7, align 8, !tbaa !6
  %35 = load i32, ptr %10, align 4, !tbaa !20
  %36 = or i32 %35, 32
  %37 = call i32 @CBS_get_asn1(ptr noundef %34, ptr noundef %13, i32 noundef %36)
  %38 = icmp ne i32 %37, 0
  br i1 %38, label %40, label %39

39:                                               ; preds = %33, %28
  br label %68

40:                                               ; preds = %33
  br label %41

41:                                               ; preds = %57, %40
  %42 = call i64 @CBS_len(ptr noundef %13)
  %43 = icmp ugt i64 %42, 0
  br i1 %43, label %44, label %58

44:                                               ; preds = %41
  call void @llvm.lifetime.start.p0(i64 16, ptr %14) #4
  %45 = load i32, ptr %11, align 4, !tbaa !20
  %46 = call i32 @CBS_get_asn1(ptr noundef %13, ptr noundef %14, i32 noundef %45)
  %47 = icmp ne i32 %46, 0
  br i1 %47, label %48, label %53

48:                                               ; preds = %44
  %49 = call ptr @CBS_data(ptr noundef %14)
  %50 = call i64 @CBS_len(ptr noundef %14)
  %51 = call i32 @CBB_add_bytes(ptr noundef %12, ptr noundef %49, i64 noundef %50)
  %52 = icmp ne i32 %51, 0
  br i1 %52, label %54, label %53

53:                                               ; preds = %48, %44
  store i32 2, ptr %15, align 4
  br label %55

54:                                               ; preds = %48
  store i32 0, ptr %15, align 4
  br label %55

55:                                               ; preds = %53, %54
  call void @llvm.lifetime.end.p0(i64 16, ptr %14) #4
  %56 = load i32, ptr %15, align 4
  switch i32 %56, label %69 [
    i32 0, label %57
    i32 2, label %68
  ]

57:                                               ; preds = %55
  br label %41, !llvm.loop !27

58:                                               ; preds = %41
  %59 = call i32 @CBB_finish(ptr noundef %12, ptr noundef %16, ptr noundef %17)
  %60 = icmp ne i32 %59, 0
  br i1 %60, label %62, label %61

61:                                               ; preds = %58
  br label %68

62:                                               ; preds = %58
  %63 = load ptr, ptr %8, align 8, !tbaa !6
  %64 = load ptr, ptr %16, align 8, !tbaa !16
  %65 = load i64, ptr %17, align 8, !tbaa !18
  call void @CBS_init(ptr noundef %63, ptr noundef %64, i64 noundef %65)
  %66 = load ptr, ptr %16, align 8, !tbaa !16
  %67 = load ptr, ptr %9, align 8, !tbaa !11
  store ptr %66, ptr %67, align 8, !tbaa !16
  store i32 1, ptr %6, align 4
  store i32 1, ptr %15, align 4
  br label %69

68:                                               ; preds = %55, %61, %39
  call void @CBB_cleanup(ptr noundef %12)
  store i32 0, ptr %6, align 4
  store i32 1, ptr %15, align 4
  br label %69

69:                                               ; preds = %68, %62, %55
  call void @llvm.lifetime.end.p0(i64 16, ptr %13) #4
  call void @llvm.lifetime.end.p0(i64 32, ptr %12) #4
  br label %70

70:                                               ; preds = %69, %22
  %71 = load i32, ptr %6, align 4
  ret i32 %71
}