; Function Attrs: nounwind uwtable
define hidden i32 @CBS_get_asn1_implicit_string(ptr noundef %0, ptr noundef %1, ptr noundef writeonly captures(none) %2, i32 noundef %3, i32 noundef %4) local_unnamed_addr #0 {
  %6 = alloca %struct.cbb_st, align 8
  %7 = alloca %struct.cbs_st, align 8
  %8 = alloca %struct.cbs_st, align 8
  %9 = alloca ptr, align 8
  %10 = alloca i64, align 8
  %11 = tail call i32 @CBS_peek_asn1_tag(ptr noundef %0, i32 noundef %3) #4
  %.not = icmp eq i32 %11, 0
  br i1 %.not, label %14, label %12

12:                                               ; preds = %5
  store ptr null, ptr %2, align 8, !tbaa !9
  %13 = tail call i32 @CBS_get_asn1(ptr noundef %0, ptr noundef %1, i32 noundef %3) #4
  br label %35

14:                                               ; preds = %5
  call void @llvm.lifetime.start.p0(i64 32, ptr nonnull %6) #4
  call void @llvm.lifetime.start.p0(i64 16, ptr nonnull %7) #4
  %15 = tail call i64 @CBS_len(ptr noundef %0) #4
  %16 = call i32 @CBB_init(ptr noundef nonnull %6, i64 noundef %15) #4
  %.not14 = icmp eq i32 %16, 0
  br i1 %.not14, label %33, label %17

17:                                               ; preds = %14
  %18 = or i32 %3, 32
  %19 = call i32 @CBS_get_asn1(ptr noundef %0, ptr noundef nonnull %7, i32 noundef %18) #4
  %.not15 = icmp eq i32 %19, 0
  br i1 %.not15, label %33, label %.preheader

.preheader:                                       ; preds = %17
  %20 = call i64 @CBS_len(ptr noundef nonnull %7) #4
  %.not1623 = icmp eq i64 %20, 0
  br i1 %.not1623, label %._crit_edge, label %.lr.ph

.lr.ph:                                           ; preds = %.preheader, %26
  call void @llvm.lifetime.start.p0(i64 16, ptr nonnull %8) #4
  %21 = call i32 @CBS_get_asn1(ptr noundef nonnull %7, ptr noundef nonnull %8, i32 noundef %4) #4
  %.not18 = icmp eq i32 %21, 0
  br i1 %.not18, label %.thread, label %22

22:                                               ; preds = %.lr.ph
  %23 = call ptr @CBS_data(ptr noundef nonnull %8) #4
  %24 = call i64 @CBS_len(ptr noundef nonnull %8) #4
  %25 = call i32 @CBB_add_bytes(ptr noundef nonnull %6, ptr noundef %23, i64 noundef %24) #4
  %.not19 = icmp eq i32 %25, 0
  br i1 %.not19, label %.thread, label %26

.thread:                                          ; preds = %.lr.ph, %22
  call void @llvm.lifetime.end.p0(i64 16, ptr nonnull %8) #4
  br label %33

26:                                               ; preds = %22
  call void @llvm.lifetime.end.p0(i64 16, ptr nonnull %8) #4
  %27 = call i64 @CBS_len(ptr noundef nonnull %7) #4
  %.not16 = icmp eq i64 %27, 0
  br i1 %.not16, label %._crit_edge, label %.lr.ph

._crit_edge:                                      ; preds = %26, %.preheader
  %28 = call i32 @CBB_finish(ptr noundef nonnull %6, ptr noundef nonnull %9, ptr noundef nonnull %10) #4
  %.not17 = icmp eq i32 %28, 0
  br i1 %.not17, label %33, label %29

29:                                               ; preds = %._crit_edge
  %30 = load ptr, ptr %9, align 8, !tbaa !9
  %31 = load i64, ptr %10, align 8, !tbaa !12
  call void @CBS_init(ptr noundef %1, ptr noundef %30, i64 noundef %31) #4
  %32 = load ptr, ptr %9, align 8, !tbaa !9
  store ptr %32, ptr %2, align 8, !tbaa !9
  br label %34

33:                                               ; preds = %.thread, %._crit_edge, %14, %17
  call void @CBB_cleanup(ptr noundef nonnull %6) #4
  br label %34

34:                                               ; preds = %33, %29
  %.1 = phi i32 [ 0, %33 ], [ 1, %29 ]
  call void @llvm.lifetime.end.p0(i64 16, ptr nonnull %7) #4
  call void @llvm.lifetime.end.p0(i64 32, ptr nonnull %6) #4
  br label %35

35:                                               ; preds = %34, %12
  %.013 = phi i32 [ %13, %12 ], [ %.1, %34 ]
  ret i32 %.013
}